
symtab.o：     文件格式 elf64-x86-64


Disassembly of section .text:

0000000000000000 <main>:
   0:	f3 0f 1e fa          	endbr64 
   4:	55                   	push   %rbp
   5:	48 89 e5             	mov    %rsp,%rbp
   8:	48 8d 3d 00 00 00 00 	lea    0x0(%rip),%rdi        # f <main+0xf>
   f:	e8 00 00 00 00       	callq  14 <main+0x14>
  14:	be 3c 00 00 00       	mov    $0x3c,%esi
  19:	bf 32 00 00 00       	mov    $0x32,%edi
  1e:	e8 00 00 00 00       	callq  23 <main+0x23>
  23:	be 50 00 00 00       	mov    $0x50,%esi
  28:	bf 46 00 00 00       	mov    $0x46,%edi
  2d:	e8 37 00 00 00       	callq  69 <add_loc>
  32:	b8 00 00 00 00       	mov    $0x0,%eax
  37:	5d                   	pop    %rbp
  38:	c3                   	retq   

0000000000000039 <add_glo>:
  39:	f3 0f 1e fa          	endbr64 
  3d:	55                   	push   %rbp
  3e:	48 89 e5             	mov    %rsp,%rbp
  41:	48 83 ec 10          	sub    $0x10,%rsp
  45:	89 7d fc             	mov    %edi,-0x4(%rbp)
  48:	89 75 f8             	mov    %esi,-0x8(%rbp)
  4b:	8b 55 fc             	mov    -0x4(%rbp),%edx
  4e:	8b 45 f8             	mov    -0x8(%rbp),%eax
  51:	01 d0                	add    %edx,%eax
  53:	89 c6                	mov    %eax,%esi
  55:	48 8d 3d 00 00 00 00 	lea    0x0(%rip),%rdi        # 5c <add_glo+0x23>
  5c:	b8 00 00 00 00       	mov    $0x0,%eax
  61:	e8 00 00 00 00       	callq  66 <add_glo+0x2d>
  66:	90                   	nop
  67:	c9                   	leaveq 
  68:	c3                   	retq   

0000000000000069 <add_loc>:
  69:	f3 0f 1e fa          	endbr64 
  6d:	55                   	push   %rbp
  6e:	48 89 e5             	mov    %rsp,%rbp
  71:	48 83 ec 10          	sub    $0x10,%rsp
  75:	89 7d fc             	mov    %edi,-0x4(%rbp)
  78:	89 75 f8             	mov    %esi,-0x8(%rbp)
  7b:	8b 55 fc             	mov    -0x4(%rbp),%edx
  7e:	8b 45 f8             	mov    -0x8(%rbp),%eax
  81:	01 d0                	add    %edx,%eax
  83:	89 c6                	mov    %eax,%esi
  85:	48 8d 3d 00 00 00 00 	lea    0x0(%rip),%rdi        # 8c <add_loc+0x23>
  8c:	b8 00 00 00 00       	mov    $0x0,%eax
  91:	e8 00 00 00 00       	callq  96 <add_loc+0x2d>
  96:	90                   	nop
  97:	c9                   	leaveq 
  98:	c3                   	retq   
